; Function Attrs: mustprogress uwtable
define hidden noalias noundef nonnull ptr @_ZN10duckdb_re26Regexp10NewLiteralEiNS0_10ParseFlagsE(i32 noundef %0, i32 noundef %1) local_unnamed_addr #7 align 2 personality ptr @__gxx_personality_v0 {
  %3 = tail call noalias noundef nonnull dereferenceable(40) ptr @_Znwm(i64 noundef 40) #31
  store i8 3, ptr %3, align 8, !tbaa !3
  %4 = getelementptr inbounds nuw i8, ptr %3, i64 1
  store i8 0, ptr %4, align 1, !tbaa !10
  %5 = getelementptr inbounds nuw i8, ptr %3, i64 2
  %6 = trunc i32 %1 to i16
  store i16 %6, ptr %5, align 2, !tbaa !11
  %7 = getelementptr inbounds nuw i8, ptr %3, i64 4
  store i16 1, ptr %7, align 4, !tbaa !12
  %8 = getelementptr inbounds nuw i8, ptr %3, i64 6
  tail call void @llvm.memset.p0.i64(ptr noundef nonnull align 2 dereferenceable(34) %8, i8 0, i64 34, i1 false)
  %9 = getelementptr inbounds nuw i8, ptr %3, i64 24
  store i32 %0, ptr %9, align 8, !tbaa !32
  ret ptr %3
}